(ioptparse
Values
p0
(dp1
S'bSkipLambdaIndex'
p2
S''
p3
sS'methods'
p4
(lp5
S'TI'
p6
aS'TI-CUBIC'
p7
asS'prefix'
p8
S'ti*/ti'
p9
sS'verbose'
p10
I00
sS'lv_names'
p11
(lp12
g3
asS'temperature'
p13
I298
sS'ddFs'
p14
(lp15
(dp16
g7
cnumpy.core.multiarray
scalar
p17
(cnumpy
dtype
p18
(S'f8'
p19
I0
I1
tp20
Rp21
(I3
S'<'
p22
NNNI-1
I-1
I0
tp23
bS'\x00\x00\x00\x00\x00\x00\x00\x00'
p24
tp25
Rp26
sg6
g17
(g21
S'\x00\x00\x00\x00\x00\x00\x00\x00'
p27
tp28
Rp29
sa(dp30
g7
g17
(g21
S'\xf9\x8f\xcaCf\xdce?'
p31
tp32
Rp33
sg6
g17
(g21
S',A\xc8\xd4\xe2\x06e?'
p34
tp35
Rp36
sa(dp37
g7
g17
(g21
S'\xf9\x8f\xcaCf\xdce?'
p38
tp39
Rp40
sg6
g17
(g21
S',A\xc8\xd4\xe2\x06e?'
p41
tp42
Rp43
sasS'overlap'
p44
I00
sS'units'
p45
S'(kcal/mol)'
p46
sS'df_allk'
p47
cnumpy.core.multiarray
_reconstruct
p48
(cnumpy
ndarray
p49
(I0
tp50
S'b'
p51
tp52
Rp53
(I1
(I4
tp54
g18
(S'O8'
p55
I0
I1
tp56
Rp57
(I3
S'|'
p58
NNNI-1
I-1
I63
tp59
bI00
(lp60
(dp61
S'TI-CUBIC'
p62
g17
(g21
S')[,\t\x9f\x85\xeb?'
p63
tp64
Rp65
sg6
g17
(g21
S'([,\t\x9f\x85\xeb?'
p66
tp67
Rp68
sa(dp69
g62
g17
(g21
S'([,\t\x9f\x85\xeb?'
p70
tp71
Rp72
sg6
g17
(g21
S'([,\t\x9f\x85\xeb?'
p73
tp74
Rp75
sa(dp76
g62
g17
(g21
S"'[,\t\x9f\x85\xeb?"
p77
tp78
Rp79
sg6
g17
(g21
S'([,\t\x9f\x85\xeb?'
p80
tp81
Rp82
sa(dp83
g62
g17
(g21
S'([,\t\x9f\x85\xeb?'
p84
tp85
Rp86
sg6
g17
(g21
S'([,\t\x9f\x85\xeb?'
p87
tp88
Rp89
satp90
bsS'breakdown'
p91
I00
sS'datafile_directory'
p92
S'/Users/pavel/edimburgo/ggit_amber'
p93
sS'bIgnoreWL'
p94
I00
sS'init_with'
p95
S'BAR'
p96
sS'dFs'
p97
(lp98
(dp99
g7
I0
sg6
I0
sa(dp100
g7
g17
(g21
S'([,\t\x9f\x85\x0b@'
p101
tp102
Rp103
sg6
g17
(g21
S'([,\t\x9f\x85\x0b@'
p104
tp105
Rp106
sa(dp107
g7
g17
(g21
S'([,\t\x9f\x85\x0b@'
p108
tp109
Rp110
sg6
g17
(g21
S'([,\t\x9f\x85\x0b@'
p111
tp112
Rp113
sasS'output_directory'
p114
S'input_data'
p115
sS'beta'
p116
F0.40359852979970595
sS'do_main_uncorrelate'
p117
I00
sS'ddf_allk'
p118
g48
(g49
(I0
tp119
g51
tp120
Rp121
(I1
(I4
tp122
g57
I00
(lp123
(dp124
g62
g17
(g21
S'?\x9bN\xe4\xc5\xc3Q?'
p125
tp126
Rp127
sg6
g17
(g21
S'8\x1d2\xa5(\xcaO?'
p128
tp129
Rp130
sa(dp131
g62
g17
(g21
S'\xa3\x14\xac\x1d\x8d\xdfQ?'
p132
tp133
Rp134
sg6
g17
(g21
S'8\x1d2\xa5(\xcaO?'
p135
tp136
Rp137
sa(dp138
g62
g17
(g21
S'\xa3\x14\xac\x1d\x8d\xdfQ?'
p139
tp140
Rp141
sg6
g17
(g21
S'8\x1d2\xa5(\xcaO?'
p142
tp143
Rp144
sa(dp145
g62
g17
(g21
S'?\x9bN\xe4\xc5\xc3Q?'
p146
tp147
Rp148
sg6
g17
(g21
S'8\x1d2\xa5(\xcaO?'
p149
tp150
Rp151
satp152
bsS'when_analyzed'
p153
S'Sun Dec 21 21:24:40 2014'
p154
sS'uncorr_threshold'
p155
I50
sS'beta_report'
p156
F0.40359852979970595
sS'decimal'
p157
I8
sS'bForwrev'
p158
I0
sS'bCFM'
p159
I00
sS'suffix'
p160
S'out'
p161
sS'equiltime'
p162
I0
sS'relative_tolerance'
p163
F1e-10
sS'software'
p164
S'AMBER'
p165
sb.